target datalayout = "e-m:e-p270:32:32-p271:32:32-p272:64:64-i64:64-i128:128-f80:128-n8:16:32:64-S128"
target triple = "x86_64-pc-linux-gnu"

%struct.Tim_Man_t_ = type { ptr, ptr, ptr, i32, i32, i32, i32, ptr, ptr }
%struct.Tim_Obj_t_ = type { i32, i32, i32, i32, float, float }

; Function Attrs: nounwind uwtable
define void @Tim_ManInitPiArrival(ptr noundef %0, i32 noundef %1, float noundef %2) #0 {
  %4 = alloca ptr, align 8
  %5 = alloca i32, align 4
  %6 = alloca float, align 4
  store ptr %0, ptr %4, align 8, !tbaa !3
  store i32 %1, ptr %5, align 4, !tbaa !8
  store float %2, ptr %6, align 4, !tbaa !10
  %7 = load float, ptr %6, align 4, !tbaa !10
  %8 = load ptr, ptr %4, align 8, !tbaa !3
  %9 = getelementptr inbounds nuw %struct.Tim_Man_t_, ptr %8, i32 0, i32 7
  %10 = load ptr, ptr %9, align 8, !tbaa !12
  %11 = load i32, ptr %5, align 4, !tbaa !8
  %12 = sext i32 %11 to i64
  %13 = getelementptr inbounds %struct.Tim_Obj_t_, ptr %10, i64 %12
  %14 = getelementptr inbounds nuw %struct.Tim_Obj_t_, ptr %13, i32 0, i32 4
  store float %7, ptr %14, align 4, !tbaa !17
  ret void
}

; Function Attrs: nounwind uwtable
define void @Tim_ManInitPiArrivalAll(ptr noundef %0, float noundef %1) #0 {
  %3 = alloca ptr, align 8
  %4 = alloca float, align 4
  %5 = alloca ptr, align 8
  %6 = alloca i32, align 4
  store ptr %0, ptr %3, align 8, !tbaa !3
  store float %1, ptr %4, align 4, !tbaa !10
  call void @llvm.lifetime.start.p0(i64 8, ptr %5) #4
  call void @llvm.lifetime.start.p0(i64 4, ptr %6) #4
  store i32 0, ptr %6, align 4, !tbaa !8
  br label %7

7:                                                ; preds = %34, %2
  %8 = load i32, ptr %6, align 4, !tbaa !8
  %9 = load ptr, ptr %3, align 8, !tbaa !3
  %10 = getelementptr inbounds nuw %struct.Tim_Man_t_, ptr %9, i32 0, i32 5
  %11 = load i32, ptr %10, align 8, !tbaa !21
  %12 = icmp slt i32 %8, %11
  br i1 %12, label %13, label %21

13:                                               ; preds = %7
  %14 = load ptr, ptr %3, align 8, !tbaa !3
  %15 = getelementptr inbounds nuw %struct.Tim_Man_t_, ptr %14, i32 0, i32 7
  %16 = load ptr, ptr %15, align 8, !tbaa !12
  %17 = load i32, ptr %6, align 4, !tbaa !8
  %18 = sext i32 %17 to i64
  %19 = getelementptr inbounds %struct.Tim_Obj_t_, ptr %16, i64 %18
  store ptr %19, ptr %5, align 8, !tbaa !22
  %20 = icmp ne ptr %19, null
  br label %21

21:                                               ; preds = %13, %7
  %22 = phi i1 [ false, %7 ], [ %20, %13 ]
  br i1 %22, label %23, label %37

23:                                               ; preds = %21
  %24 = load ptr, ptr %5, align 8, !tbaa !22
  %25 = getelementptr inbounds nuw %struct.Tim_Obj_t_, ptr %24, i32 0, i32 2
  %26 = load i32, ptr %25, align 4, !tbaa !23
  %27 = icmp sge i32 %26, 0
  br i1 %27, label %28, label %29

28:                                               ; preds = %23
  br label %33

29:                                               ; preds = %23
  %30 = load ptr, ptr %3, align 8, !tbaa !3
  %31 = load i32, ptr %6, align 4, !tbaa !8
  %32 = load float, ptr %4, align 4, !tbaa !10
  call void @Tim_ManInitPiArrival(ptr noundef %30, i32 noundef %31, float noundef %32)
  br label %33

33:                                               ; preds = %29, %28
  br label %34

34:                                               ; preds = %33
  %35 = load i32, ptr %6, align 4, !tbaa !8
  %36 = add nsw i32 %35, 1
  store i32 %36, ptr %6, align 4, !tbaa !8
  br label %7, !llvm.loop !24

37:                                               ; preds = %21
  call void @llvm.lifetime.end.p0(i64 4, ptr %6) #4
  call void @llvm.lifetime.end.p0(i64 8, ptr %5) #4
  ret void
}