; Function Attrs: nofree norecurse nosync nounwind memory(readwrite, inaccessiblemem: none) uwtable
define void @Tim_ManInitPiArrivalAll(ptr noundef readonly captures(none) %0, float noundef %1) local_unnamed_addr #1 {
  %3 = getelementptr inbounds nuw i8, ptr %0, i64 32
  %4 = load i32, ptr %3, align 8, !tbaa !17
  %5 = icmp sgt i32 %4, 0
  br i1 %5, label %.lr.ph, label %.critedge

.lr.ph:                                           ; preds = %2
  %6 = getelementptr inbounds nuw i8, ptr %0, i64 40
  %7 = load ptr, ptr %6, align 8, !tbaa !3
  %.not = icmp eq ptr %7, null
  br i1 %.not, label %.critedge, label %.lr.ph.split.preheader

.lr.ph.split.preheader:                           ; preds = %.lr.ph
  %wide.trip.count = zext nneg i32 %4 to i64
  br label %.lr.ph.split

.lr.ph.split:                                     ; preds = %.lr.ph.split.preheader, %13
  %indvars.iv = phi i64 [ 0, %.lr.ph.split.preheader ], [ %indvars.iv.next, %13 ]
  %8 = getelementptr inbounds nuw %struct.Tim_Obj_t_, ptr %7, i64 %indvars.iv, i32 2
  %9 = load i32, ptr %8, align 4, !tbaa !18
  %10 = icmp sgt i32 %9, -1
  br i1 %10, label %13, label %11

11:                                               ; preds = %.lr.ph.split
  %12 = getelementptr inbounds nuw %struct.Tim_Obj_t_, ptr %7, i64 %indvars.iv, i32 4
  store float %1, ptr %12, align 4, !tbaa !12
  br label %13

13:                                               ; preds = %11, %.lr.ph.split
  %indvars.iv.next = add nuw nsw i64 %indvars.iv, 1
  %exitcond.not = icmp eq i64 %indvars.iv.next, %wide.trip.count
  br i1 %exitcond.not, label %.critedge, label %.lr.ph.split, !llvm.loop !19

.critedge:                                        ; preds = %13, %.lr.ph, %2
  ret void
}